target datalayout = "e-m:e-p270:32:32-p271:32:32-p272:64:64-i64:64-i128:128-f80:128-n8:16:32:64-S128"
target triple = "x86_64-pc-linux-gnu"

%struct.lua_State = type { %struct.GCRef, i8, i8, i8, i8, %struct.MRef, %struct.GCRef, ptr, ptr, %struct.MRef, %struct.MRef, %struct.GCRef, %struct.GCRef, ptr, i32 }
%struct.MRef = type { i64 }
%struct.GCRef = type { i64 }
%union.TValue = type { i64 }
%struct.GCfuncC = type { %struct.GCRef, i8, i8, i8, i8, %struct.GCRef, %struct.GCRef, %struct.MRef, ptr, [1 x %union.TValue] }
%struct.GCcdata = type { %struct.GCRef, i8, i8, i16 }

@.str.1 = private unnamed_addr constant [24 x i8] c"store to dead GC object\00", align 1

; Function Attrs: alwaysinline nounwind uwtable
define internal void @checklivetv(ptr noundef %0, ptr noundef %1, ptr noundef %2) #3 {
  %4 = alloca ptr, align 8
  %5 = alloca ptr, align 8
  %6 = alloca ptr, align 8
  store ptr %0, ptr %4, align 8, !tbaa !4
  store ptr %1, ptr %5, align 8, !tbaa !19
  store ptr %2, ptr %6, align 8, !tbaa !51
  ret void
}

; Function Attrs: alwaysinline nounwind uwtable
define internal void @setgcVraw(ptr noundef %0, ptr noundef %1, i32 noundef %2) #3 {
  %4 = alloca ptr, align 8
  %5 = alloca ptr, align 8
  %6 = alloca i32, align 4
  store ptr %0, ptr %4, align 8, !tbaa !19
  store ptr %1, ptr %5, align 8, !tbaa !49
  store i32 %2, ptr %6, align 4, !tbaa !9
  %7 = load ptr, ptr %5, align 8, !tbaa !49
  %8 = ptrtoint ptr %7 to i64
  %9 = load i32, ptr %6, align 4, !tbaa !9
  %10 = zext i32 %9 to i64
  %11 = shl i64 %10, 47
  %12 = or i64 %8, %11
  %13 = load ptr, ptr %4, align 8, !tbaa !19
  %14 = getelementptr inbounds nuw %struct.GCRef, ptr %13, i32 0, i32 0
  store i64 %12, ptr %14, align 8, !tbaa !18
  ret void
}

; Function Attrs: alwaysinline nounwind uwtable
define internal void @setgcV(ptr noundef %0, ptr noundef %1, ptr noundef %2, i32 noundef %3) #3 {
  %5 = alloca ptr, align 8
  %6 = alloca ptr, align 8
  %7 = alloca ptr, align 8
  %8 = alloca i32, align 4
  store ptr %0, ptr %5, align 8, !tbaa !4
  store ptr %1, ptr %6, align 8, !tbaa !19
  store ptr %2, ptr %7, align 8, !tbaa !49
  store i32 %3, ptr %8, align 4, !tbaa !9
  %9 = load ptr, ptr %6, align 8, !tbaa !19
  %10 = load ptr, ptr %7, align 8, !tbaa !49
  %11 = load i32, ptr %8, align 4, !tbaa !9
  call void @setgcVraw(ptr noundef %9, ptr noundef %10, i32 noundef %11)
  %12 = load ptr, ptr %5, align 8, !tbaa !4
  %13 = load ptr, ptr %6, align 8, !tbaa !19
  call void @checklivetv(ptr noundef %12, ptr noundef %13, ptr noundef @.str.1)
  ret void
}

; Function Attrs: alwaysinline nounwind uwtable
define internal void @setcdataV(ptr noundef %0, ptr noundef %1, ptr noundef %2) #3 {
  %4 = alloca ptr, align 8
  %5 = alloca ptr, align 8
  %6 = alloca ptr, align 8
  store ptr %0, ptr %4, align 8, !tbaa !4
  store ptr %1, ptr %5, align 8, !tbaa !19
  store ptr %2, ptr %6, align 8, !tbaa !43
  %7 = load ptr, ptr %4, align 8, !tbaa !4
  %8 = load ptr, ptr %5, align 8, !tbaa !19
  %9 = load ptr, ptr %6, align 8, !tbaa !43
  call void @setgcV(ptr noundef %7, ptr noundef %8, ptr noundef %9, i32 noundef -11)
  ret void
}

; Function Attrs: alwaysinline nounwind uwtable
define internal ptr @lj_cdata_new_(ptr noundef %0, i32 noundef %1, i32 noundef %2) #3 {
  %4 = alloca ptr, align 8
  %5 = alloca i32, align 4
  %6 = alloca i32, align 4
  %7 = alloca ptr, align 8
  store ptr %0, ptr %4, align 8, !tbaa !4
  store i32 %1, ptr %5, align 4, !tbaa !9
  store i32 %2, ptr %6, align 4, !tbaa !9
  call void @llvm.lifetime.start.p0(i64 8, ptr %7) #6
  %8 = load ptr, ptr %4, align 8, !tbaa !4
  %9 = load i32, ptr %6, align 4, !tbaa !9
  %10 = zext i32 %9 to i64
  %11 = add i64 16, %10
  %12 = call ptr @lj_mem_newgco(ptr noundef %8, i64 noundef %11)
  store ptr %12, ptr %7, align 8, !tbaa !43
  %13 = load ptr, ptr %7, align 8, !tbaa !43
  %14 = getelementptr inbounds nuw %struct.GCcdata, ptr %13, i32 0, i32 2
  store i8 10, ptr %14, align 1, !tbaa !45
  %15 = load i32, ptr %5, align 4, !tbaa !9
  %16 = trunc i32 %15 to i16
  %17 = load ptr, ptr %7, align 8, !tbaa !43
  %18 = getelementptr inbounds nuw %struct.GCcdata, ptr %17, i32 0, i32 3
  store i16 %16, ptr %18, align 2, !tbaa !48
  %19 = load ptr, ptr %7, align 8, !tbaa !43
  call void @llvm.lifetime.end.p0(i64 8, ptr %7) #6
  ret ptr %19
}

; Function Attrs: alwaysinline nounwind uwtable
define internal void @setintV(ptr noundef %0, i32 noundef %1) #3 {
  %3 = alloca ptr, align 8
  %4 = alloca i32, align 4
  store ptr %0, ptr %3, align 8, !tbaa !19
  store i32 %1, ptr %4, align 4, !tbaa !9
  %5 = load i32, ptr %4, align 4, !tbaa !9
  %6 = sitofp i32 %5 to double
  %7 = load ptr, ptr %3, align 8, !tbaa !19
  store double %6, ptr %7, align 8, !tbaa !18
  ret void
}

; Function Attrs: nounwind uwtable
define internal i32 @bit_result64(ptr noundef %0, i32 noundef %1, i64 noundef %2) #0 {
  %4 = alloca ptr, align 8
  %5 = alloca i32, align 4
  %6 = alloca i64, align 8
  %7 = alloca ptr, align 8
  store ptr %0, ptr %4, align 8, !tbaa !4
  store i32 %1, ptr %5, align 4, !tbaa !9
  store i64 %2, ptr %6, align 8, !tbaa !17
  call void @llvm.lifetime.start.p0(i64 8, ptr %7) #6
  %8 = load ptr, ptr %4, align 8, !tbaa !4
  %9 = load i32, ptr %5, align 4, !tbaa !9
  %10 = call ptr @lj_cdata_new_(ptr noundef %8, i32 noundef %9, i32 noundef 8)
  store ptr %10, ptr %7, align 8, !tbaa !43
  %11 = load i64, ptr %6, align 8, !tbaa !17
  %12 = load ptr, ptr %7, align 8, !tbaa !43
  %13 = getelementptr inbounds %struct.GCcdata, ptr %12, i64 1
  store i64 %11, ptr %13, align 8, !tbaa !17
  %14 = load ptr, ptr %4, align 8, !tbaa !4
  %15 = load ptr, ptr %4, align 8, !tbaa !4
  %16 = getelementptr inbounds nuw %struct.lua_State, ptr %15, i32 0, i32 7
  %17 = load ptr, ptr %16, align 8, !tbaa !11
  %18 = getelementptr inbounds %union.TValue, ptr %17, i64 -1
  %19 = getelementptr inbounds %union.TValue, ptr %18, i64 -1
  %20 = load ptr, ptr %7, align 8, !tbaa !43
  call void @setcdataV(ptr noundef %14, ptr noundef %19, ptr noundef %20)
  call void @llvm.lifetime.end.p0(i64 8, ptr %7) #6
  ret i32 2
}

; Function Attrs: nounwind uwtable
define internal i32 @lj_ffh_bit_lshift(ptr noundef %0) #0 {
  %2 = alloca i32, align 4
  %3 = alloca ptr, align 8
  %4 = alloca i32, align 4
  %5 = alloca i32, align 4
  %6 = alloca i64, align 8
  %7 = alloca i32, align 4
  %8 = alloca i32, align 4
  store ptr %0, ptr %3, align 8, !tbaa !4
  call void @llvm.lifetime.start.p0(i64 4, ptr %4) #6
  store i32 0, ptr %4, align 4, !tbaa !9
  call void @llvm.lifetime.start.p0(i64 4, ptr %5) #6
  store i32 0, ptr %5, align 4, !tbaa !9
  call void @llvm.lifetime.start.p0(i64 8, ptr %6) #6
  %9 = load ptr, ptr %3, align 8, !tbaa !4
  %10 = call i64 @lj_carith_check64(ptr noundef %9, i32 noundef 1, ptr noundef %4)
  store i64 %10, ptr %6, align 8, !tbaa !17
  call void @llvm.lifetime.start.p0(i64 4, ptr %7) #6
  %11 = load ptr, ptr %3, align 8, !tbaa !4
  %12 = call i64 @lj_carith_check64(ptr noundef %11, i32 noundef 2, ptr noundef %5)
  %13 = trunc i64 %12 to i32
  store i32 %13, ptr %7, align 4, !tbaa !9
  %14 = load i32, ptr %4, align 4, !tbaa !9
  %15 = icmp ne i32 %14, 0
  br i1 %15, label %16, label %36

16:                                               ; preds = %1
  %17 = load i64, ptr %6, align 8, !tbaa !17
  %18 = load i32, ptr %7, align 4, !tbaa !9
  %19 = load ptr, ptr %3, align 8, !tbaa !4
  %20 = getelementptr inbounds nuw %struct.lua_State, ptr %19, i32 0, i32 7
  %21 = load ptr, ptr %20, align 8, !tbaa !11
  %22 = getelementptr inbounds %union.TValue, ptr %21, i64 -2
  %23 = getelementptr inbounds nuw %struct.GCRef, ptr %22, i32 0, i32 0
  %24 = load i64, ptr %23, align 8, !tbaa !18
  %25 = and i64 %24, 140737488355327
  %26 = inttoptr i64 %25 to ptr
  %27 = getelementptr inbounds nuw %struct.GCfuncC, ptr %26, i32 0, i32 3
  %28 = load i8, ptr %27, align 2, !tbaa !18
  %29 = zext i8 %28 to i32
  %30 = sub nsw i32 %29, 67
  %31 = call i64 @lj_carith_shift64(i64 noundef %17, i32 noundef %18, i32 noundef %30)
  store i64 %31, ptr %6, align 8, !tbaa !17
  %32 = load ptr, ptr %3, align 8, !tbaa !4
  %33 = load i32, ptr %4, align 4, !tbaa !9
  %34 = load i64, ptr %6, align 8, !tbaa !17
  %35 = call i32 @bit_result64(ptr noundef %32, i32 noundef %33, i64 noundef %34)
  store i32 %35, ptr %2, align 4
  store i32 1, ptr %8, align 4
  br label %42

36:                                               ; preds = %1
  %37 = load ptr, ptr %3, align 8, !tbaa !4
  %38 = getelementptr inbounds nuw %struct.lua_State, ptr %37, i32 0, i32 7
  %39 = load ptr, ptr %38, align 8, !tbaa !11
  %40 = getelementptr inbounds %union.TValue, ptr %39, i64 1
  %41 = load i32, ptr %7, align 4, !tbaa !9
  call void @setintV(ptr noundef %40, i32 noundef %41)
  store i32 0, ptr %2, align 4
  store i32 1, ptr %8, align 4
  br label %42

42:                                               ; preds = %36, %16
  call void @llvm.lifetime.end.p0(i64 4, ptr %7) #6
  call void @llvm.lifetime.end.p0(i64 8, ptr %6) #6
  call void @llvm.lifetime.end.p0(i64 4, ptr %5) #6
  call void @llvm.lifetime.end.p0(i64 4, ptr %4) #6
  %43 = load i32, ptr %2, align 4
  ret i32 %43
}