; Function Attrs: nounwind uwtable
define internal range(i32 0, 3) i32 @lj_ffh_bit_lshift(ptr noundef %0) #0 {
  %2 = alloca i32, align 4
  %3 = alloca i32, align 4
  call void @llvm.lifetime.start.p0(i64 4, ptr nonnull %2) #5
  store i32 0, ptr %2, align 4, !tbaa !4
  call void @llvm.lifetime.start.p0(i64 4, ptr nonnull %3) #5
  store i32 0, ptr %3, align 4, !tbaa !4
  %4 = call i64 @lj_carith_check64(ptr noundef %0, i32 noundef 1, ptr noundef nonnull %2) #5
  %5 = call i64 @lj_carith_check64(ptr noundef %0, i32 noundef 2, ptr noundef nonnull %3) #5
  %6 = trunc i64 %5 to i32
  %7 = load i32, ptr %2, align 4, !tbaa !4
  %.not = icmp eq i32 %7, 0
  %8 = getelementptr inbounds nuw i8, ptr %0, i64 32
  %9 = load ptr, ptr %8, align 8, !tbaa !8
  br i1 %.not, label %30, label %10

10:                                               ; preds = %1
  %11 = getelementptr inbounds i8, ptr %9, i64 -16
  %12 = load i64, ptr %11, align 8, !tbaa !15
  %13 = and i64 %12, 140737488355327
  %14 = inttoptr i64 %13 to ptr
  %15 = getelementptr inbounds nuw i8, ptr %14, i64 10
  %16 = load i8, ptr %15, align 2, !tbaa !15
  %17 = zext i8 %16 to i32
  %18 = add nsw i32 %17, -67
  %19 = call i64 @lj_carith_shift64(i64 noundef %4, i32 noundef %6, i32 noundef %18) #5
  %20 = load i32, ptr %2, align 4, !tbaa !4
  %21 = call ptr @lj_mem_newgco(ptr noundef %0, i64 noundef 24) #5
  %22 = getelementptr inbounds nuw i8, ptr %21, i64 9
  store i8 10, ptr %22, align 1, !tbaa !16
  %23 = trunc i32 %20 to i16
  %24 = getelementptr inbounds nuw i8, ptr %21, i64 10
  store i16 %23, ptr %24, align 2, !tbaa !19
  %25 = getelementptr inbounds nuw i8, ptr %21, i64 16
  store i64 %19, ptr %25, align 8, !tbaa !20
  %26 = load ptr, ptr %8, align 8, !tbaa !8
  %27 = getelementptr inbounds i8, ptr %26, i64 -16
  %28 = ptrtoint ptr %21 to i64
  %29 = or i64 %28, -1548112371908608
  store i64 %29, ptr %27, align 8, !tbaa !15
  br label %33

30:                                               ; preds = %1
  %31 = getelementptr inbounds nuw i8, ptr %9, i64 8
  %32 = sitofp i32 %6 to double
  store double %32, ptr %31, align 8, !tbaa !15
  br label %33

33:                                               ; preds = %30, %10
  %.0 = phi i32 [ 2, %10 ], [ 0, %30 ]
  call void @llvm.lifetime.end.p0(i64 4, ptr nonnull %3) #5
  call void @llvm.lifetime.end.p0(i64 4, ptr nonnull %2) #5
  ret i32 %.0
}